; Function Attrs: null_pointer_is_valid sspstrong uwtable
define internal noundef zeroext i1 @dissect_cind_parameter(ptr noundef %0, ptr readnone captures(none) %1, ptr noundef %2, i32 noundef %3, i32 noundef %4, i16 noundef zeroext %5, ptr readnone captures(none) %6, i32 noundef %7, i32 noundef %8, ptr readnone captures(none) %9) #0 {
  %11 = icmp eq i32 %4, 2
  br i1 %11, label %12, label %13

12:                                               ; preds = %10
  switch i16 %5, label %13 [
    i16 15679, label %check_cind.exit
    i16 63, label %check_cind.exit
  ]

13:                                               ; preds = %12, %10
  %14 = icmp ne i32 %4, 1
  %15 = icmp ne i16 %5, 58
  %or.cond5.i.not = or i1 %14, %15
  br label %check_cind.exit

check_cind.exit:                                  ; preds = %12, %12, %13
  %.0.i = phi i1 [ false, %12 ], [ false, %12 ], [ %or.cond5.i.not, %13 ]
  %16 = icmp ugt i32 %7, 19
  %or.cond = or i1 %16, %.0.i
  br i1 %or.cond, label %22, label %17

17:                                               ; preds = %check_cind.exit
  %18 = zext nneg i32 %7 to i64
  %19 = getelementptr [20 x i32], ptr @hf_indicator, i64 0, i64 %18
  %20 = load i32, ptr %19, align 4
  %21 = tail call ptr @proto_tree_add_item(ptr noundef %2, i32 noundef %20, ptr noundef %0, i32 noundef %3, i32 noundef %8, i32 noundef 0)
  br label %22

22:                                               ; preds = %check_cind.exit, %17
  %.0 = xor i1 %or.cond, true
  ret i1 %.0
}